Certificate:
    Data:
        Version: 3 (0x2)
        Serial Number: 1 (0x1)
        Signature Algorithm: sha256WithRSAEncryption
        Issuer: C=NZ, ST=Some-State, O=plus64.nz, CN=plus64.nz
        Validity
            Not Before: Jul 18 04:46:17 2019 GMT
            Not After : Jul 17 04:46:17 2020 GMT
        Subject: C=NZ, ST=Some-State, O=plus64.nz, CN=kam.plus64.nz
        Subject Public Key Info:
            Public Key Algorithm: rsaEncryption
                RSA Public-Key: (2048 bit)
                Modulus:
                    00:cb:6a:6b:31:f3:a1:60:da:bb:ec:1a:69:f3:91:
                    c5:8f:04:1f:f2:b5:18:f8:36:ab:9d:49:70:52:c3:
                    32:63:02:3f:2b:75:7d:e7:be:b0:9c:28:d9:39:d8:
                    3c:18:17:1b:3f:f4:c8:85:77:8b:53:9f:ad:0e:f2:
                    22:8c:e8:4a:da:b8:74:86:ce:36:55:db:a7:c4:ed:
                    ad:10:d2:7e:4b:24:41:40:d3:5b:1b:4d:1e:50:47:
                    00:6c:d4:81:4f:c1:90:52:8e:b5:8f:43:7e:9e:1c:
                    a4:0d:69:ab:bc:21:14:23:6d:fa:10:a5:57:f8:98:
                    ba:be:ca:72:92:b6:27:b9:35:2e:2b:2d:04:13:3a:
                    a2:c3:2c:b1:dd:1d:de:d7:20:f4:19:b5:16:ae:5f:
                    f4:cf:5a:ab:e0:fb:3c:77:e5:14:44:10:5c:b2:5f:
                    fb:0c:17:ce:ac:f2:ff:58:45:83:5a:21:97:c7:27:
                    e8:68:9b:e3:09:67:32:19:aa:34:40:c9:ff:9c:1c:
                    5e:dd:43:0b:85:af:19:22:03:73:d0:6d:0e:d8:c9:
                    4d:94:82:74:38:59:1d:4e:80:28:0a:c1:e6:18:d4:
                    4b:94:63:43:03:a9:61:0c:2b:8a:30:53:c9:9f:c7:
                    0c:8d:07:fb:14:c7:a8:c7:2f:70:2b:b3:f5:24:89:
                    4b:39
                Exponent: 65537 (0x10001)
        X509v3 extensions:
            X509v3 Basic Constraints: 
                CA:FALSE
            Netscape Comment: 
                OpenSSL Generated Certificate
            X509v3 Subject Key Identifier: 
                10:4E:BD:8C:09:0A:95:12:41:E3:3F:F2:F5:75:9F:DA:93:22:16:A4
            X509v3 Authority Key Identifier: 
                keyid:BD:19:77:E2:AD:45:2E:C5:81:29:2E:31:A1:BA:3D:F5:12:94:00:B4

    Signature Algorithm: sha256WithRSAEncryption
         3b:57:9a:98:10:24:5c:a3:5f:d0:68:1b:f2:aa:bd:9b:0a:1f:
         12:3d:2f:9d:fe:3f:b7:d7:9d:e5:f2:3f:e4:61:c8:08:dc:ed:
         f9:47:84:e5:71:dc:7b:ad:a1:0e:90:e3:69:44:04:fb:b5:bf:
         28:96:21:64:a5:21:91:51:db:9e:cc:15:4d:89:e4:42:a2:c5:
         89:6d:6c:9d:8c:78:c1:ad:5a:06:bd:81:1f:66:24:96:e0:cb:
         1e:3b:a3:59:08:b1:0f:1f:5a:05:93:5a:ea:fc:7e:96:85:48:
         6f:d5:c3:71:fd:f1:7c:06:c1:8a:b1:a0:f8:1d:96:6d:6b:eb:
         ce:ca:77:86:8e:7d:7f:0c:52:05:94:e3:63:d7:1a:a2:37:35:
         c1:77:c9:df:ef:82:eb:f7:f8:0e:a7:92:36:17:ac:92:2a:a1:
         fc:f6:78:28:82:5c:08:c2:81:db:aa:8f:a3:dd:0e:95:43:0a:
         c3:fb:42:56:60:23:90:f0:42:2c:10:6d:08:92:68:7d:5d:56:
         04:7e:ae:6a:4d:7e:3f:53:49:e9:3a:81:f6:38:18:8b:7a:42:
         5b:e7:52:56:fe:ff:54:17:0c:95:2e:35:5a:d2:bc:8f:5f:77:
         5e:38:ee:94:0b:b0:4a:94:89:23:3a:c8:56:74:37:5c:2d:e7:
         cb:16:24:5b
-----BEGIN CERTIFICATE-----
MIIDjjCCAnagAwIBAgIBATANBgkqhkiG9w0BAQsFADBKMQswCQYDVQQGEwJOWjET
MBEGA1UECAwKU29tZS1TdGF0ZTESMBAGA1UECgwJcGx1czY0Lm56MRIwEAYDVQQD
DAlwbHVzNjQubnowHhcNMTkwNzE4MDQ0NjE3WhcNMjAwNzE3MDQ0NjE3WjBOMQsw
CQYDVQQGEwJOWjETMBEGA1UECAwKU29tZS1TdGF0ZTESMBAGA1UECgwJcGx1czY0
Lm56MRYwFAYDVQQDDA1rYW0ucGx1czY0Lm56MIIBIjANBgkqhkiG9w0BAQEFAAOC
AQ8AMIIBCgKCAQEAy2prMfOhYNq77Bpp85HFjwQf8rUY+DarnUlwUsMyYwI/K3V9
576wnCjZOdg8GBcbP/TIhXeLU5+tDvIijOhK2rh0hs42VdunxO2tENJ+SyRBQNNb
G00eUEcAbNSBT8GQUo61j0N+nhykDWmrvCEUI236EKVX+Ji6vspykrYnuTUuKy0E
Ezqiwyyx3R3e1yD0GbUWrl/0z1qr4Ps8d+UURBBcsl/7DBfOrPL/WEWDWiGXxyfo
aJvjCWcyGao0QMn/nBxe3UMLha8ZIgNz0G0O2MlNlIJ0OFkdToAoCsHmGNRLlGND
A6lhDCuKMFPJn8cMjQf7FMeoxy9wK7P1JIlLOQIDAQABo3sweTAJBgNVHRMEAjAA
MCwGCWCGSAGG+EIBDQQfFh1PcGVuU1NMIEdlbmVyYXRlZCBDZXJ0aWZpY2F0ZTAd
BgNVHQ4EFgQUEE69jAkKlRJB4z/y9XWf2pMiFqQwHwYDVR0jBBgwFoAUvRl34q1F
LsWBKS4xobo99RKUALQwDQYJKoZIhvcNAQELBQADggEBADtXmpgQJFyjX9BoG/Kq
vZsKHxI9L53+P7fXneXyP+RhyAjc7flHhOVx3HutoQ6Q42lEBPu1vyiWIWSlIZFR
257MFU2J5EKixYltbJ2MeMGtWga9gR9mJJbgyx47o1kIsQ8fWgWTWur8fpaFSG/V
w3H98XwGwYqxoPgdlm1r687Kd4aOfX8MUgWU42PXGqI3NcF3yd/vguv3+A6nkjYX
rJIqofz2eCiCXAjCgduqj6PdDpVDCsP7QlZgI5DwQiwQbQiSaH1dVgR+rmpNfj9T
Sek6gfY4GIt6QlvnUlb+/1QXDJUuNVrSvI9fd1447pQLsEqUiSM6yFZ0N1wt58sW
JFs=
-----END CERTIFICATE-----
